(dp0
S'projects/software-usage-notes/python_en.source'
p1
S'ceb9c763970d41b6bc3717a157602ad0dfc765542a198e4ffcee7e6429fb9f9ea260ea3d4fcd9c8c9442d4e2435d439d54bbb626eefef506c337db972d5b6888'
p2
sS'projects/old-stuff/simplewp_en.source'
p3
S'567c7e4f7c7558e0dbd60ade86be098530bd61df2cb3bdf27516dba39dc782c6842d8fd52d07d5a12c514b035a9edf14da20f8159855f9e0603d6af956613082'
p4
sS'projects/software-usage-notes/fs_en.source'
p5
S'cf293607ed9cd5565606fc23afea8648f78f31b3bd6df08f1d5e75a97f9549a7c0b24d25e58c9fca0d64fceaf92485977e45d1cc7d848fefae7e8848659b6125'
p6
sS'projects/software-usage-notes/bash_en.source'
p7
S'e06c2df328a16d5b8433b5d65f593879bf5c014513774152401c1a6b392a250162a8a0d6a36c2294a90e999476420223a62fbabd18f3ab8d220cc29b9a91e378'
p8
sS'projects/old-stuff/svrst_en.source'
p9
S'ee07a1ad0c18b156acb0e76ba950c82089ed69c1c4d4baa59b17775227985736b837d58fa3c07fe4492e728a3df2a65a7c15a829d0f4d94fcaf6218454eed953'
p10
sS'projects/software-usage-notes/archrepos_en.source'
p11
S'79b91272472b26a05e32d499cae968ae9bb3650d722376fe923593e48294da6ac18c6bd861a79bbc901b64e883d2e8258020a8e85f5a73bbaf46c4f73415b669'
p12
sS'projects/software-usage-notes/matlab_en.source'
p13
S'aee7898d2b7756bbb287f7bde89529c9d55b8be00d9900db199b714a20b2b58af26ce7697b30e49b6c94f6ca8c3cf438e7a5473283468baa5c24c1a792bbacf8'
p14
sS'projects/index_en.source'
p15
S'69634f0fe506698a1b8725863422bcfd2c6ac4be5a58e18dc86bc16115e26c68fbd583c4a1a02f829ad7fc14e52298054fd3c6fe3ab1d3486b16a56dbf32335d'
p16
sS'projects/urpkg/index_en.source'
p17
S'7673cdef6f2bce1ae493db8f195898aedc69091a95a0b36e273c37bff89761c0409ca58bd33c6ce5bc8e414a6e14cf33139c8826ef6c99228bd4498db4afdc6f'
p18
sS'projects/software-usage-notes/index_en.source'
p19
S'8b280ab4ae7d764734b746439897b69b5c66396d213576f8324cc5951d36c15daab2dbc034814092074a3363e97268709f402abfe811034a6967c1b975cb3c36'
p20
sS'projects/software-usage-notes/nokia6600-slide_en.source'
p21
S'33b3ce9cb6e319d7d0d5b3780b145aab9fb67735df82f9368e914a26dfe5b6ceb1bbefb70c7f943eec90c48b9a611ce6e2fbccab879cfe364669828f896fb663'
p22
sS'projects/old-stuff/list2pkg/index_en.source'
p23
S'90d8f7aae9a6493f61328bfae61f746ffb8c438a8951ede2678d7a3f49cc702cf5890b1709b2b5eb5cd97cc593f1384671f2578349d3af2e0744ab89f72fb2d4'
p24
sS'projects/darwrap_en.source'
p25
S'0a14913f08e76299107f0ac45097ae6ba0b148b86f9ff6c1e2e308e3bc415b655a045e3aa0d5be7a6f5f9d33c0f5debfdf03ae7c6e63c810c3e03e8575ba3dae'
p26
sS'projects/old-stuff/simplewp-doc_en.source'
p27
S'1fd3fe11a3ea568487a04cb2f0da05b41b735ed96220e4ae1f57a4ead439f1bb6c0a1c4dfea4bd8008581ef9131d5a755d84bf42ca10c622d60cc95eaafbca47'
p28
sS'projects/old-stuff/autonet-doc_en.source'
p29
S'06a4338eb1bc5a1c0d7d640dccc8b8bf2328926b25af9607de936282c4312d4d043b2220932b85d732745a66151ebf37519752b48ccf9d609e6b2510388a2980'
p30
sS'projects/software-usage-notes/xorg_en.source'
p31
S'8481f4620af1338a299635391186a33e1a9ef802ea4cb6de2486a1fe01e28361ae14ad7c05a43f88a9d8ad3e11a96a27280f3adf464b044bee9cec09152aaffd'
p32
sS'projects/software-usage-notes/cdrw_en.source'
p33
S'a7691eb3b9aadc76a51c9616d7795d6a4142e23e4f494c67f4a6ad0c9571870a1eaee242c641c9e51d4078746ba69e20292ab21e38840cf4db0095596dcc9a00'
p34
sS'projects/software-usage-notes/firefox_en.source'
p35
S'f551aaaa9da59e1178cf7dbfacb06c5fc564f60e71c7422c16f401636c1c3f42fa1756d2d2b0faba124a23034505963a63609e42021a62c9e4f287741cd82ae8'
p36
sS'projects/software-usage-notes/time_en.source'
p37
S'238ce160d02ec571e758345f2a4907d5be98bf1ba105047bb0bff54b2f48f44b52cb843bff0bc8b0117eb8e1065a06e9662c017d62040eb330205eadd9f05fd9'
p38
sS'projects/software-usage-notes/multimedia_en.source'
p39
S'a31a954898bf4b427ed1d107efe2ca8115975eec5fc9a4bb6174bd84a2ec27970f0b410e908b572f04d1fbf70211f371d84e9d498274686d6ec833376f04b005'
p40
sS'projects/software-usage-notes/git_en.source'
p41
S'f97f135136bc3df5d3f139939b8d795c042c800c66aaf2a498ac3530e99c8d16c715375b61f7b301cafb27bd3cb852bae93c6aae771547153f124d947540369b'
p42
sS'projects/software-usage-notes/perl_en.source'
p43
S'5d13d1d00c464b9ab3cc999ce87d294e600cf2d0783d70514f04e2c81572ffd02289d42d5b70700ac66c4dcd35d509003cdfa8755a1b8165eebe601dd136cc3b'
p44
sS'projects/old-stuff/with-tsocks_en.source'
p45
S'31242b182b3c57dbbd8d2d1b4216d897c587b9d8653a4977cf58584ed8ab9cb5edfdcb72a322dc24c980ed6f0409308a3458296a65b7143c33e96d787e86b750'
p46
sS'projects/darwrap-doc_en.source'
p47
S'dc81ab4eb7830505c32f15e4c87ca79a27913ab1bf2dfade20abd0ffe0503d0ed8e094962512f130c7bfb799715aa1833dc15f839fced4bd2bc69a1c420d9600'
p48
sS'projects/software-usage-notes/eee901_en.source'
p49
S'e0131e4f80cc5c0e5d5376051352b87dbd59822c37fbc365d19bf8c3d21366587b3ad7a0b75345b64e3cdd909fdf09d3c0f1b7db13278d3ec7376e5690a66999'
p50
sS'projects/old-stuff/svmonitor_en.source'
p51
S'3a8cee7ff02d3087da59e16402ec74bbaf919b9cd82bb4081a785b120eaf25365029a3f004a9e530699b4b9dde9f0a9861b09b7478a45eef5b1a54ab578f1213'
p52
sS'projects/deeppink_en.source'
p53
S'f9323167db42d0fa2a7c0f50fd846cd2213b0883e49b60b13ca0f0c1b7721bdf27741d272dc012c30a39dc53df5e172c2ba5ab9648912103d90d257afa9aa234'
p54
sS'projects/old-stuff/svbluetooth_en.source'
p55
S'3733c9e868ec2e0cba4a2bff792b6623e8721421997c71ee030480f2ca016cc8120897c2ae6112875a728b3662b5baa8426eae3f7ed6cdd59ef2b93c326358d0'
p56
sS'./index_en.source'
p57
S'623dac06bc08be27d832239adc888eb1e99f081baad884ca181271caae3c6d0481fe42dc677d37c0c65ed3095e08b16607e64285802e39076a1b54c1f2cf45b8'
p58
sS'projects/software-usage-notes/wlan_en.source'
p59
S'f47b4ba21bcc4f34fa472fa8f96b6b4682417dd7fb67d2128cbe4150028ad93f2802fe880835913df75c5afa59ee3dda8c7275e63715d4ade3d5e8b25e59d8fb'
p60
sS'projects/old-stuff/wakeup_en.source'
p61
S'ea58a22e03fddf4d15af4a13b96aff2bb5264883c3c85660385b13bf5a3be4b268633397ad5d471c8239f329317589ddeec11815f6d490bfd2b8b8278ac6a346'
p62
sS'./about-site_en.source'
p63
S'bc205245ecc6d1b2f01656a815d4d633c3ab6c605011e6f97679b91e31068a79800d7dffd46eacf93a7c21f70462b1486abad329a4b14141b8386454bf092cce'
p64
sS'projects/old-stuff/openconnect-helpers_en.source'
p65
S'cf9ead05613c17abf80cb752fa48f304a2a9e219952a3f5e0ae4dc5ca63abe0185adcd7945b73491ebf2e83f641de1974b1d43aa7147ce018c66bb6ab2434a7c'
p66
sS'./copyright_en.source'
p67
S'f26231d6c45fa1609fc87d6eb0c49f8e0e604737954b372bd8ea2b83e36b25f34ee65efa801d1bf1766507c700df96c151997da26a69831e2ec2f16f12c88a78'
p68
sS'projects/software-usage-notes/gpg_en.source'
p69
S'840098adb9387d5884a309efd6dcc8e58242ed305de0982fda4f67c3b3ad64d58c138821aefed851a1c70a65b577816c0f5d5f97ee7349c480597251c21825be'
p70
sS'projects/old-stuff/crypto_fr.source'
p71
S'bc314c6191301fec63291a8556dde6afd3dfe0b7a93bf8762ed375c72ece4ad8528bff520f6cc130ef40af82db661280a9587a80162f1609f9eca330a354d5ff'
p72
sS'projects/software-usage-notes/mmarkdown_en.source'
p73
S'59878830fb4b3887bb6dfefc3db6041a056d7a4c652d4ca7b79f71ec164fd459fae4cda0ce1b669b1cf2987f76f81dced6b6eb5fa97a7e146ea91a7764aa65f8'
p74
sS'projects/old-stuff/crypto_en.source'
p75
S'c2986d92f5dce872d220f7aae0ab137f8ae6f9ea3e9cf985081fa0fce736be1a8bcefc675d55e963219f77a19ae701f3833719276fe783c73297ff645ef7c00c'
p76
sS'projects/old-stuff/s3archive_en.source'
p77
S'72a4bdc57636957bd01879dc950daef4fc5c6ab6c7947dfd96d1f47703da8fd7abd406d361452438ed81650762d41e8a75eeb9e07e86bf8d9bd2ce2bdedf472e'
p78
sS'projects/old-stuff/index_en.source'
p79
S'52e71afa519588f44618298c01fbaef4a94922283a9c918fdcebc9aab8da926c83a372ba5c42194ea8a2c8fe38bee2e96aee80c8e666dbfe8aa7f63565903f21'
p80
sS'./tls-user_en.source'
p81
S'bf130a15fc4e9636786b5d261257ba0f26c653d42fd6e52611f25e3731fa1cd73e20042b93eab85472a1fd4eedfe4787054551654ec9d8e5b8814f0f1199e3e9'
p82
sS'projects/old-stuff/python-svlib_en.source'
p83
S'23d7c8418cf31686d780d2d969189bbfb83f4cd3a706ee07569220571fbd62f83ea24b425bd0e25b7dc73fe8cf8d1b654971dbeff140cf69ed86e11a2d34bb62'
p84
sS'projects/software-usage-notes/autotools_en.source'
p85
S'98441682a71172f0f129b3824b4b923d8d441c50db16b1a8fd11bd31136d24c140c30581e47a1f508ccfe6112741705be7b623a6a8339c0b843692dfee659300'
p86
sS'./about_en.source'
p87
S'7a8b3fbe098d269183e3f7158f7203b51729693c98cd32eb7ca7ea53538fee8c7e247fe17d27bd13afecd69e4fc3e1c6d4adcf5fbfc17879c80dc4615a8cdd53'
p88
sS'projects/software-usage-notes/pdf_en.source'
p89
S'5947f7bf6f85b68cdfe1170516c07d04d93705b79d41530c51084f2623a546dbfbc92c47d23107753c90daa9905182db7a22ad641939dbf7dc90f7f0a7d9da9b'
p90
sS'projects/software-usage-notes/ssh_en.source'
p91
S'043dba6b0b89b599de2d7d0808fcf5d38d072b3880b844974cd04184bc9ece01c01b050c4aa1e27fee0e81993b0a5798a41f1c5050ce7fd8721f822e3d335e62'
p92
sS'projects/software-usage-notes/dot_en.source'
p93
S'34f38ecd5aaa5754c2a2d0d4d62225834e4d8ea72f35f1ea62302b88847c67112f1a02fa1350d8f48398c2e13794de5a9cb6db3db58242656689431df1120695'
p94
sS'projects/old-stuff/autonet_en.source'
p95
S'44e598570e503b2a766dbb88f1c490881b762bdad7bb390d052025741a966e45953d7af277bf4a66dd90175f3ac310c15672b781893a59f7211682f4af3dbcd5'
p96
sS'projects/download-install-doc_en.source'
p97
S'4c73f26adee02946603094de1005c9541227eaac20fbe6f3e63be0887fff1245853f988f6bde3e4a056b2fd4560d22bf563bc615599385a65679deb67e2b872d'
p98
sS'projects/synthesis-rla/index_en.source'
p99
S'ab9f1e1a6ccb2fef0e98b23e70e32bdbe0213b43029694e16f9f4514e9c75b7ba63a3b5cce8f298c999d893bd2256fde3396b786411aa5a2a26c4a1e83a00c10'
p100
sS'projects/software-usage-notes/wget_en.source'
p101
S'374e8112935d69627888237d6149fdbb4601ccee3814374cbafce0eb56a76d0f75ae7f8f13993015597fad3ef1c4b4de919b99a5ce31862d5197007e45e4e3c0'
p102
sS'projects/software-usage-notes/ssl_en.source'
p103
S'f5d24bf7bfd8463012f294d8b52e6a87caf68885921e46a565265b5b802b343aa4b1d5f23658227f7c5f6125c8a32f0c80ed5b4da5a07284d3264d6aef3c0abe'
p104
sS'./news_en.source'
p105
S'04bf5b54f7e5b26d30f4c547d7312c75b6ba301e9d32fc1b28bc8c1a5064b2d27e153693853a2d457ba9f1058bea602e422255a5a04d71dbda384d0b0101e02f'
p106
s.